target datalayout = "e-m:e-p270:32:32-p271:32:32-p272:64:64-i64:64-i128:128-f80:128-n8:16:32:64-S128"
target triple = "x86_64-pc-linux-gnu"

%struct.strvec = type { ptr, i64, i64 }
%struct.am_state = type { ptr, i32, i32, ptr, ptr, ptr, ptr, i64, %struct.object_id, i32, i32, i32, i32, i32, i32, i32, i32, i32, i32, i32, i32, %struct.strvec, ptr, i32, i32, i32, ptr, i32 }
%struct.object_id = type { [32 x i8], i32 }

@.str.72 = private unnamed_addr constant [1 x i8] zeroinitializer, align 1
@git_gettext_enabled = external global i32, align 4
@.str.141 = private unnamed_addr constant [2 x i8] c"-\00", align 1
@.str.142 = private unnamed_addr constant [2 x i8] c"r\00", align 1
@split_mail_conv.stdin_only = internal global [2 x ptr] [ptr @.str.141, ptr null], align 16
@stdin = external global ptr, align 8
@.str.162 = private unnamed_addr constant [32 x i8] c"could not open '%s' for reading\00", align 1
@.str.163 = private unnamed_addr constant [8 x i8] c"%s/%0*d\00", align 1
@.str.164 = private unnamed_addr constant [2 x i8] c"w\00", align 1
@.str.165 = private unnamed_addr constant [32 x i8] c"could not open '%s' for writing\00", align 1
@.str.166 = private unnamed_addr constant [27 x i8] c"could not parse patch '%s'\00", align 1

; Function Attrs: inlinehint nounwind uwtable
define internal i32 @const_error() #5 {
  ret i32 -1
}

; Function Attrs: inlinehint nounwind uwtable
define internal ptr @_(ptr noundef %0) #5 {
  %2 = alloca ptr, align 8
  %3 = alloca ptr, align 8
  store ptr %0, ptr %3, align 8, !tbaa !11
  %4 = load ptr, ptr %3, align 8, !tbaa !11
  %5 = load i8, ptr %4, align 1, !tbaa !84
  %6 = icmp ne i8 %5, 0
  br i1 %6, label %8, label %7

7:                                                ; preds = %1
  store ptr @.str.72, ptr %2, align 8
  br label %16

8:                                                ; preds = %1
  %9 = load i32, ptr @git_gettext_enabled, align 4, !tbaa !4
  %10 = icmp ne i32 %9, 0
  br i1 %10, label %13, label %11

11:                                               ; preds = %8
  %12 = load ptr, ptr %3, align 8, !tbaa !11
  store ptr %12, ptr %2, align 8
  br label %16

13:                                               ; preds = %8
  %14 = load ptr, ptr %3, align 8, !tbaa !11
  %15 = call ptr @dcgettext(ptr noundef null, ptr noundef %14, i32 noundef 5) #14
  store ptr %15, ptr %2, align 8
  br label %16

16:                                               ; preds = %13, %11, %7
  %17 = load ptr, ptr %2, align 8
  ret ptr %17
}

; Function Attrs: nounwind uwtable
define internal i32 @split_mail_conv(ptr noundef %0, ptr noundef %1, ptr noundef %2, i32 noundef %3) #0 {
  %5 = alloca i32, align 4
  %6 = alloca ptr, align 8
  %7 = alloca ptr, align 8
  %8 = alloca ptr, align 8
  %9 = alloca i32, align 4
  %10 = alloca i32, align 4
  %11 = alloca ptr, align 8
  %12 = alloca ptr, align 8
  %13 = alloca ptr, align 8
  %14 = alloca i32, align 4
  %15 = alloca i32, align 4
  store ptr %0, ptr %6, align 8, !tbaa !46
  store ptr %1, ptr %7, align 8, !tbaa !47
  store ptr %2, ptr %8, align 8, !tbaa !8
  store i32 %3, ptr %9, align 4, !tbaa !4
  call void @llvm.lifetime.start.p0(i64 4, ptr %10) #14
  %16 = load ptr, ptr %8, align 8, !tbaa !8
  %17 = load ptr, ptr %16, align 8, !tbaa !11
  %18 = icmp ne ptr %17, null
  br i1 %18, label %20, label %19

19:                                               ; preds = %4
  store ptr @split_mail_conv.stdin_only, ptr %8, align 8, !tbaa !8
  br label %20

20:                                               ; preds = %19, %4
  store i32 0, ptr %10, align 4, !tbaa !4
  br label %21

21:                                               ; preds = %98, %20
  %22 = load ptr, ptr %8, align 8, !tbaa !8
  %23 = load ptr, ptr %22, align 8, !tbaa !11
  %24 = icmp ne ptr %23, null
  br i1 %24, label %25, label %103

25:                                               ; preds = %21
  call void @llvm.lifetime.start.p0(i64 8, ptr %11) #14
  call void @llvm.lifetime.start.p0(i64 8, ptr %12) #14
  call void @llvm.lifetime.start.p0(i64 8, ptr %13) #14
  call void @llvm.lifetime.start.p0(i64 4, ptr %14) #14
  %26 = load ptr, ptr %8, align 8, !tbaa !8
  %27 = load ptr, ptr %26, align 8, !tbaa !11
  %28 = call i32 @strcmp(ptr noundef %27, ptr noundef @.str.141) #16
  %29 = icmp ne i32 %28, 0
  br i1 %29, label %32, label %30

30:                                               ; preds = %25
  %31 = load ptr, ptr @stdin, align 8, !tbaa !29
  store ptr %31, ptr %11, align 8, !tbaa !29
  br label %36

32:                                               ; preds = %25
  %33 = load ptr, ptr %8, align 8, !tbaa !8
  %34 = load ptr, ptr %33, align 8, !tbaa !11
  %35 = call ptr @git_fopen(ptr noundef %34, ptr noundef @.str.142)
  store ptr %35, ptr %11, align 8, !tbaa !29
  br label %36

36:                                               ; preds = %32, %30
  %37 = load ptr, ptr %11, align 8, !tbaa !29
  %38 = icmp ne ptr %37, null
  br i1 %38, label %45, label %39

39:                                               ; preds = %36
  %40 = call ptr @_(ptr noundef @.str.162)
  %41 = load ptr, ptr %8, align 8, !tbaa !8
  %42 = load ptr, ptr %41, align 8, !tbaa !11
  %43 = call i32 (ptr, ...) @error_errno(ptr noundef %40, ptr noundef %42)
  %44 = call i32 @const_error()
  store i32 %44, ptr %5, align 4
  store i32 1, ptr %15, align 4
  br label %95

45:                                               ; preds = %36
  %46 = load ptr, ptr %7, align 8, !tbaa !47
  %47 = getelementptr inbounds nuw %struct.am_state, ptr %46, i32 0, i32 0
  %48 = load ptr, ptr %47, align 8, !tbaa !31
  %49 = load ptr, ptr %7, align 8, !tbaa !47
  %50 = getelementptr inbounds nuw %struct.am_state, ptr %49, i32 0, i32 9
  %51 = load i32, ptr %50, align 4, !tbaa !49
  %52 = load i32, ptr %10, align 4, !tbaa !4
  %53 = add nsw i32 %52, 1
  %54 = call ptr (ptr, ...) @mkpath(ptr noundef @.str.163, ptr noundef %48, i32 noundef %51, i32 noundef %53)
  store ptr %54, ptr %13, align 8, !tbaa !11
  %55 = load ptr, ptr %13, align 8, !tbaa !11
  %56 = call ptr @git_fopen(ptr noundef %55, ptr noundef @.str.164)
  store ptr %56, ptr %12, align 8, !tbaa !29
  %57 = load ptr, ptr %12, align 8, !tbaa !29
  %58 = icmp ne ptr %57, null
  br i1 %58, label %71, label %59

59:                                               ; preds = %45
  %60 = load ptr, ptr %11, align 8, !tbaa !29
  %61 = load ptr, ptr @stdin, align 8, !tbaa !29
  %62 = icmp ne ptr %60, %61
  br i1 %62, label %63, label %66

63:                                               ; preds = %59
  %64 = load ptr, ptr %11, align 8, !tbaa !29
  %65 = call i32 @fclose(ptr noundef %64)
  br label %66

66:                                               ; preds = %63, %59
  %67 = call ptr @_(ptr noundef @.str.165)
  %68 = load ptr, ptr %13, align 8, !tbaa !11
  %69 = call i32 (ptr, ...) @error_errno(ptr noundef %67, ptr noundef %68)
  %70 = call i32 @const_error()
  store i32 %70, ptr %5, align 4
  store i32 1, ptr %15, align 4
  br label %95

71:                                               ; preds = %45
  %72 = load ptr, ptr %6, align 8, !tbaa !46
  %73 = load ptr, ptr %12, align 8, !tbaa !29
  %74 = load ptr, ptr %11, align 8, !tbaa !29
  %75 = load i32, ptr %9, align 4, !tbaa !4
  %76 = call i32 %72(ptr noundef %73, ptr noundef %74, i32 noundef %75)
  store i32 %76, ptr %14, align 4, !tbaa !4
  %77 = load ptr, ptr %12, align 8, !tbaa !29
  %78 = call i32 @fclose(ptr noundef %77)
  %79 = load ptr, ptr %11, align 8, !tbaa !29
  %80 = load ptr, ptr @stdin, align 8, !tbaa !29
  %81 = icmp ne ptr %79, %80
  br i1 %81, label %82, label %85

82:                                               ; preds = %71
  %83 = load ptr, ptr %11, align 8, !tbaa !29
  %84 = call i32 @fclose(ptr noundef %83)
  br label %85

85:                                               ; preds = %82, %71
  %86 = load i32, ptr %14, align 4, !tbaa !4
  %87 = icmp ne i32 %86, 0
  br i1 %87, label %88, label %94

88:                                               ; preds = %85
  %89 = call ptr @_(ptr noundef @.str.166)
  %90 = load ptr, ptr %8, align 8, !tbaa !8
  %91 = load ptr, ptr %90, align 8, !tbaa !11
  %92 = call i32 (ptr, ...) @error(ptr noundef %89, ptr noundef %91)
  %93 = call i32 @const_error()
  store i32 %93, ptr %5, align 4
  store i32 1, ptr %15, align 4
  br label %95

94:                                               ; preds = %85
  store i32 0, ptr %15, align 4
  br label %95

95:                                               ; preds = %94, %88, %66, %39
  call void @llvm.lifetime.end.p0(i64 4, ptr %14) #14
  call void @llvm.lifetime.end.p0(i64 8, ptr %13) #14
  call void @llvm.lifetime.end.p0(i64 8, ptr %12) #14
  call void @llvm.lifetime.end.p0(i64 8, ptr %11) #14
  %96 = load i32, ptr %15, align 4
  switch i32 %96, label %109 [
    i32 0, label %97
  ]

97:                                               ; preds = %95
  br label %98

98:                                               ; preds = %97
  %99 = load ptr, ptr %8, align 8, !tbaa !8
  %100 = getelementptr inbounds nuw ptr, ptr %99, i32 1
  store ptr %100, ptr %8, align 8, !tbaa !8
  %101 = load i32, ptr %10, align 4, !tbaa !4
  %102 = add nsw i32 %101, 1
  store i32 %102, ptr %10, align 4, !tbaa !4
  br label %21, !llvm.loop !108

103:                                              ; preds = %21
  %104 = load ptr, ptr %7, align 8, !tbaa !47
  %105 = getelementptr inbounds nuw %struct.am_state, ptr %104, i32 0, i32 1
  store i32 1, ptr %105, align 8, !tbaa !59
  %106 = load i32, ptr %10, align 4, !tbaa !4
  %107 = load ptr, ptr %7, align 8, !tbaa !47
  %108 = getelementptr inbounds nuw %struct.am_state, ptr %107, i32 0, i32 2
  store i32 %106, ptr %108, align 4, !tbaa !60
  store i32 0, ptr %5, align 4
  store i32 1, ptr %15, align 4
  br label %109

109:                                              ; preds = %103, %95
  call void @llvm.lifetime.end.p0(i64 4, ptr %10) #14
  %110 = load i32, ptr %5, align 4
  ret i32 %110
}