; Function Attrs: nounwind uwtable
define internal fastcc range(i32 -1, 1) i32 @split_mail_conv(ptr noundef readonly captures(none) %0, ptr noundef nonnull captures(none) %1, ptr noundef readonly captures(none) %2, i32 noundef %3) unnamed_addr #0 {
  %5 = load ptr, ptr %2, align 8, !tbaa !44
  %.not = icmp eq ptr %5, null
  %spec.store.select = select i1 %.not, ptr @split_mail_conv.stdin_only, ptr %2
  %6 = load ptr, ptr %spec.store.select, align 8, !tbaa !44
  %.not3557 = icmp eq ptr %6, null
  br i1 %.not3557, label %._crit_edge, label %sub_0.lr.ph

sub_0.lr.ph:                                      ; preds = %4
  %7 = getelementptr inbounds nuw i8, ptr %1, i64 92
  br label %sub_0

sub_0:                                            ; preds = %sub_0.lr.ph, %51
  %8 = phi ptr [ %6, %sub_0.lr.ph ], [ %53, %51 ]
  %.03059 = phi ptr [ %spec.store.select, %sub_0.lr.ph ], [ %52, %51 ]
  %.03158 = phi i32 [ 0, %sub_0.lr.ph ], [ %26, %51 ]
  %9 = load i8, ptr %8, align 1
  %.not60 = icmp eq i8 %9, 45
  br i1 %.not60, label %.tail, label %.tail.thread

.tail:                                            ; preds = %sub_0
  %10 = getelementptr inbounds nuw i8, ptr %8, i64 1
  %11 = load i8, ptr %10, align 1
  %12 = icmp eq i8 %11, 0
  br i1 %12, label %13, label %.tail.thread

13:                                               ; preds = %.tail
  %14 = load ptr, ptr @stdin, align 8, !tbaa !36
  br label %16

.tail.thread:                                     ; preds = %sub_0, %.tail
  %15 = tail call ptr @git_fopen(ptr noundef nonnull %8, ptr noundef nonnull @.str.142) #21
  br label %16

16:                                               ; preds = %.tail.thread, %13
  %.032 = phi ptr [ %15, %.tail.thread ], [ %14, %13 ]
  %.not37 = icmp eq ptr %.032, null
  br i1 %.not37, label %17, label %23

17:                                               ; preds = %16
  %18 = load i32, ptr @git_gettext_enabled, align 4, !tbaa !4
  %.not4.i = icmp eq i32 %18, 0
  br i1 %.not4.i, label %_.exit, label %19

19:                                               ; preds = %17
  %20 = tail call ptr @dcgettext(ptr noundef null, ptr noundef nonnull @.str.162, i32 noundef 5) #21
  br label %_.exit

_.exit:                                           ; preds = %17, %19
  %.0.i = phi ptr [ %20, %19 ], [ @.str.162, %17 ]
  %21 = load ptr, ptr %.03059, align 8, !tbaa !44
  %22 = tail call i32 (ptr, ...) @error_errno(ptr noundef %.0.i, ptr noundef %21) #21
  br label %.critedge

23:                                               ; preds = %16
  %24 = load ptr, ptr %1, align 8, !tbaa !23
  %25 = load i32, ptr %7, align 4, !tbaa !28
  %26 = add nuw nsw i32 %.03158, 1
  %27 = tail call ptr (ptr, ...) @mkpath(ptr noundef nonnull @.str.163, ptr noundef %24, i32 noundef %25, i32 noundef %26) #21
  %28 = tail call ptr @git_fopen(ptr noundef %27, ptr noundef nonnull @.str.164) #21
  %.not38 = icmp eq ptr %28, null
  br i1 %.not38, label %29, label %38

29:                                               ; preds = %23
  %30 = load ptr, ptr @stdin, align 8, !tbaa !36
  %.not39 = icmp eq ptr %.032, %30
  br i1 %.not39, label %33, label %31

31:                                               ; preds = %29
  %32 = tail call i32 @fclose(ptr noundef nonnull %.032)
  br label %33

33:                                               ; preds = %31, %29
  %34 = load i32, ptr @git_gettext_enabled, align 4, !tbaa !4
  %.not4.i42 = icmp eq i32 %34, 0
  br i1 %.not4.i42, label %_.exit44, label %35

35:                                               ; preds = %33
  %36 = tail call ptr @dcgettext(ptr noundef null, ptr noundef nonnull @.str.165, i32 noundef 5) #21
  br label %_.exit44

_.exit44:                                         ; preds = %33, %35
  %.0.i43 = phi ptr [ %36, %35 ], [ @.str.165, %33 ]
  %37 = tail call i32 (ptr, ...) @error_errno(ptr noundef %.0.i43, ptr noundef %27) #21
  br label %.critedge

38:                                               ; preds = %23
  %39 = tail call i32 %0(ptr noundef nonnull %28, ptr noundef nonnull %.032, i32 noundef %3) #21, !callees !168
  %40 = tail call i32 @fclose(ptr noundef nonnull %28)
  %41 = load ptr, ptr @stdin, align 8, !tbaa !36
  %.not40 = icmp eq ptr %.032, %41
  br i1 %.not40, label %44, label %42

42:                                               ; preds = %38
  %43 = tail call i32 @fclose(ptr noundef nonnull %.032)
  br label %44

44:                                               ; preds = %42, %38
  %.not41 = icmp eq i32 %39, 0
  br i1 %.not41, label %51, label %45

45:                                               ; preds = %44
  %46 = load i32, ptr @git_gettext_enabled, align 4, !tbaa !4
  %.not4.i45 = icmp eq i32 %46, 0
  br i1 %.not4.i45, label %_.exit47, label %47

47:                                               ; preds = %45
  %48 = tail call ptr @dcgettext(ptr noundef null, ptr noundef nonnull @.str.166, i32 noundef 5) #21
  br label %_.exit47

_.exit47:                                         ; preds = %45, %47
  %.0.i46 = phi ptr [ %48, %47 ], [ @.str.166, %45 ]
  %49 = load ptr, ptr %.03059, align 8, !tbaa !44
  %50 = tail call i32 (ptr, ...) @error(ptr noundef %.0.i46, ptr noundef %49) #21
  br label %.critedge

51:                                               ; preds = %44
  %52 = getelementptr inbounds nuw i8, ptr %.03059, i64 8
  %53 = load ptr, ptr %52, align 8, !tbaa !44
  %.not35 = icmp eq ptr %53, null
  br i1 %.not35, label %._crit_edge, label %sub_0, !llvm.loop !169

._crit_edge:                                      ; preds = %51, %4
  %.031.lcssa = phi i32 [ 0, %4 ], [ %26, %51 ]
  %54 = getelementptr inbounds nuw i8, ptr %1, i64 8
  store i32 1, ptr %54, align 8, !tbaa !62
  %55 = getelementptr inbounds nuw i8, ptr %1, i64 12
  store i32 %.031.lcssa, ptr %55, align 4, !tbaa !63
  br label %.critedge

.critedge:                                        ; preds = %_.exit47, %_.exit44, %_.exit, %._crit_edge
  %.2 = phi i32 [ 0, %._crit_edge ], [ -1, %_.exit ], [ -1, %_.exit44 ], [ -1, %_.exit47 ]
  ret i32 %.2
}